; Function Attrs: mustprogress uwtable
define dso_local void @_ZN4Luau7CodeGen3X6418AssemblyBuilderX648placeAvxEPKcNS1_10OperandX64ES5_hhbhh(ptr noundef nonnull align 8 dereferenceable(252) %0, ptr noundef %1, i64 %2, i64 %3, i8 noundef zeroext %4, i8 noundef zeroext %5, i1 noundef zeroext %6, i8 noundef zeroext %7, i8 noundef zeroext %8) local_unnamed_addr #0 align 2 {
  %10 = getelementptr inbounds nuw i8, ptr %0, i64 80
  %11 = load i8, ptr %10, align 8, !tbaa !14, !range !61, !noundef !62
  %12 = trunc nuw i8 %11 to i1
  br i1 %12, label %13, label %14

13:                                               ; preds = %9
  tail call void @_ZN4Luau7CodeGen3X6418AssemblyBuilderX643logEPKcNS1_10OperandX64ES5_(ptr noundef nonnull align 8 dereferenceable(252) %0, ptr noundef %1, i64 %2, i64 %3)
  br label %14

14:                                               ; preds = %13, %9
  %15 = and i64 %2, 255
  %16 = icmp eq i64 %15, 1
  %17 = getelementptr inbounds nuw i8, ptr %0, i64 232
  %18 = load ptr, ptr %17, align 8, !tbaa !51
  %19 = getelementptr inbounds nuw i8, ptr %18, i64 1
  store ptr %19, ptr %17, align 8, !tbaa !51
  store i8 -60, ptr %18, align 1, !tbaa !13
  %20 = load ptr, ptr %17, align 8, !tbaa !51
  %21 = getelementptr inbounds nuw i8, ptr %20, i64 1
  store ptr %21, ptr %17, align 8, !tbaa !51
  br i1 %16, label %22, label %40

22:                                               ; preds = %14
  %.sroa.17.0.extract.shift.i = lshr i64 %3, 16
  %.sroa.17.0.extract.trunc.i = trunc i64 %.sroa.17.0.extract.shift.i to i8
  %23 = shl i8 %.sroa.17.0.extract.trunc.i, 1
  %24 = and i8 %23, -128
  %25 = trunc i64 %2 to i32
  %26 = lshr i32 %25, 8
  %27 = and i32 %26, 64
  %28 = lshr i32 %25, 17
  %29 = and i32 %28, 32
  %30 = or disjoint i32 %29, %27
  %31 = trunc nuw nsw i32 %30 to i8
  %32 = or disjoint i8 %24, %31
  %33 = xor i8 %32, -32
  %34 = or i8 %33, %7
  store i8 %34, ptr %20, align 1, !tbaa !13
  %35 = and i8 %.sroa.17.0.extract.trunc.i, 7
  %36 = icmp eq i8 %35, 6
  %37 = select i1 %36, i8 4, i8 0
  %38 = select i1 %6, i8 -8, i8 120
  %39 = or disjoint i8 %38, %37
  br label %58

40:                                               ; preds = %14
  %.sroa.17.0.extract.shift.i58 = lshr i64 %2, 16
  %.sroa.17.0.extract.trunc.i59 = trunc i64 %.sroa.17.0.extract.shift.i58 to i8
  %41 = shl i8 %.sroa.17.0.extract.trunc.i59, 1
  %42 = and i8 %41, -128
  %43 = trunc i64 %3 to i32
  %44 = lshr i32 %43, 8
  %45 = and i32 %44, 64
  %46 = lshr i32 %43, 17
  %47 = and i32 %46, 32
  %48 = or disjoint i32 %47, %45
  %49 = trunc nuw nsw i32 %48 to i8
  %50 = or disjoint i8 %42, %49
  %51 = xor i8 %50, -32
  %52 = or i8 %51, %7
  store i8 %52, ptr %20, align 1, !tbaa !13
  %53 = select i1 %6, i8 -128, i8 0
  %54 = and i8 %.sroa.17.0.extract.trunc.i59, 7
  %55 = icmp eq i8 %54, 6
  %56 = select i1 %55, i8 124, i8 120
  %57 = or disjoint i8 %56, %53
  br label %58

58:                                               ; preds = %40, %22
  %.sink77 = phi i8 [ %57, %40 ], [ %39, %22 ]
  %.sink69 = phi i8 [ %4, %40 ], [ %5, %22 ]
  %.sink68 = phi i64 [ %2, %40 ], [ %3, %22 ]
  %.sink = phi i64 [ %3, %40 ], [ %2, %22 ]
  %59 = or i8 %.sink77, %8
  %60 = load ptr, ptr %17, align 8, !tbaa !51
  %61 = getelementptr inbounds nuw i8, ptr %60, i64 1
  store ptr %61, ptr %17, align 8, !tbaa !51
  store i8 %59, ptr %60, align 1, !tbaa !13
  %62 = load ptr, ptr %17, align 8, !tbaa !51
  %63 = getelementptr inbounds nuw i8, ptr %62, i64 1
  store ptr %63, ptr %17, align 8, !tbaa !51
  store i8 %.sink69, ptr %62, align 1, !tbaa !13
  %sum.shift.i60 = lshr i64 %.sink68, 19
  %64 = trunc i64 %sum.shift.i60 to i8
  %65 = and i8 %64, 31
  tail call void @_ZN4Luau7CodeGen3X6418AssemblyBuilderX6414placeModRegMemENS1_10OperandX64Ehi(ptr noundef nonnull align 8 dereferenceable(252) %0, i64 %.sink, i8 noundef zeroext %65, i32 noundef 0)
  %66 = getelementptr inbounds nuw i8, ptr %0, i64 248
  %67 = load i32, ptr %66, align 8, !tbaa !63
  %68 = add i32 %67, 1
  store i32 %68, ptr %66, align 8, !tbaa !63
  %69 = getelementptr inbounds nuw i8, ptr %0, i64 240
  %70 = load ptr, ptr %69, align 8, !tbaa !52
  %71 = getelementptr inbounds nuw i8, ptr %0, i64 232
  %72 = load ptr, ptr %71, align 8, !tbaa !51
  %73 = ptrtoint ptr %70 to i64
  %74 = ptrtoint ptr %72 to i64
  %75 = sub i64 %73, %74
  %76 = and i64 %75, 4294967280
  %77 = icmp eq i64 %76, 0
  br i1 %77, label %78, label %_ZN4Luau7CodeGen3X6418AssemblyBuilderX646commitEv.exit

78:                                               ; preds = %58
  tail call void @_ZN4Luau7CodeGen3X6418AssemblyBuilderX646extendEv(ptr noundef nonnull align 8 dereferenceable(252) %0)
  br label %_ZN4Luau7CodeGen3X6418AssemblyBuilderX646commitEv.exit

_ZN4Luau7CodeGen3X6418AssemblyBuilderX646commitEv.exit: ; preds = %58, %78
  ret void
}